; Function Attrs: mustprogress uwtable
define dso_local noundef nonnull align 8 dereferenceable(24) ptr @_ZN3tev10ImageSaver9getSaversEv() local_unnamed_addr #1 align 2 personality ptr @__gxx_personality_v0 {
  %1 = load atomic i8, ptr @_ZGVZN3tev10ImageSaver9getSaversEvE11imageSavers acquire, align 8
  %2 = icmp eq i8 %1, 0
  br i1 %2, label %3, label %8, !prof !5

3:                                                ; preds = %0
  %4 = tail call i32 @__cxa_guard_acquire(ptr nonnull @_ZGVZN3tev10ImageSaver9getSaversEvE11imageSavers) #11
  %.not = icmp eq i32 %4, 0
  br i1 %.not, label %8, label %5

5:                                                ; preds = %3
  invoke fastcc void @"_ZZN3tev10ImageSaver9getSaversEvENK3$_0clEv"()
          to label %6 unwind label %9

6:                                                ; preds = %5
  %7 = tail call i32 @__cxa_atexit(ptr nonnull @_ZNSt3__16vectorINS_10unique_ptrIN3tev10ImageSaverENS_14default_deleteIS3_EEEENS_9allocatorIS6_EEED2B8ne190000Ev, ptr nonnull @_ZZN3tev10ImageSaver9getSaversEvE11imageSavers, ptr nonnull @__dso_handle) #11
  tail call void @__cxa_guard_release(ptr nonnull @_ZGVZN3tev10ImageSaver9getSaversEvE11imageSavers) #11
  br label %8

8:                                                ; preds = %6, %3, %0
  ret ptr @_ZZN3tev10ImageSaver9getSaversEvE11imageSavers

9:                                                ; preds = %5
  %10 = landingpad { ptr, i32 }
          cleanup
  tail call void @__cxa_guard_abort(ptr nonnull @_ZGVZN3tev10ImageSaver9getSaversEvE11imageSavers) #11
  resume { ptr, i32 } %10
}